target datalayout = "e-m:e-p270:32:32-p271:32:32-p272:64:64-i64:64-i128:128-f80:128-n8:16:32:64-S128"
target triple = "x86_64-pc-linux-gnu"

%struct._php_stream = type { ptr, ptr, %struct._php_stream_filter_chain, %struct._php_stream_filter_chain, ptr, ptr, %struct._zval_struct, i16, [16 x i8], i32, ptr, ptr, ptr, ptr, i64, ptr, i64, i64, i64, i64, ptr }
%struct._php_stream_filter_chain = type { ptr, ptr, ptr }
%struct._zval_struct = type { %union._zend_value, %union.anon, %union.anon.2 }
%union._zend_value = type { i64 }
%union.anon = type { i32 }
%union.anon.2 = type { i32 }
%struct.glob_s_t = type { %struct.glob_t, i64, i32, ptr, i64, ptr, i64, ptr, i64, i8 }
%struct.glob_t = type { i64, ptr, i64, i32, ptr, ptr, ptr, ptr, ptr }

; Function Attrs: nounwind uwtable
define internal i32 @php_glob_stream_rewind(ptr noundef %0, i64 noundef %1, i32 noundef %2, ptr noundef %3) #0 {
  %5 = alloca ptr, align 8
  %6 = alloca i64, align 8
  %7 = alloca i32, align 4
  %8 = alloca ptr, align 8
  %9 = alloca ptr, align 8
  store ptr %0, ptr %5, align 8
  store i64 %1, ptr %6, align 8
  store i32 %2, ptr %7, align 4
  store ptr %3, ptr %8, align 8
  %10 = load ptr, ptr %5, align 8
  %11 = getelementptr inbounds %struct._php_stream, ptr %10, i32 0, i32 1
  %12 = load ptr, ptr %11, align 8
  store ptr %12, ptr %9, align 8
  %13 = load ptr, ptr %9, align 8
  %14 = icmp ne ptr %13, null
  br i1 %14, label %15, label %29

15:                                               ; preds = %4
  %16 = load ptr, ptr %9, align 8
  %17 = getelementptr inbounds %struct.glob_s_t, ptr %16, i32 0, i32 1
  store i64 0, ptr %17, align 8
  %18 = load ptr, ptr %9, align 8
  %19 = getelementptr inbounds %struct.glob_s_t, ptr %18, i32 0, i32 3
  %20 = load ptr, ptr %19, align 8
  %21 = icmp ne ptr %20, null
  br i1 %21, label %22, label %28

22:                                               ; preds = %15
  %23 = load ptr, ptr %9, align 8
  %24 = getelementptr inbounds %struct.glob_s_t, ptr %23, i32 0, i32 3
  %25 = load ptr, ptr %24, align 8
  call void @_efree(ptr noundef %25)
  %26 = load ptr, ptr %9, align 8
  %27 = getelementptr inbounds %struct.glob_s_t, ptr %26, i32 0, i32 3
  store ptr null, ptr %27, align 8
  br label %28

28:                                               ; preds = %22, %15
  br label %29

29:                                               ; preds = %28, %4
  ret i32 0
}