; Function Attrs: nounwind uwtable
define internal noundef i32 @php_glob_stream_rewind(ptr nocapture noundef readonly %0, i64 %1, i32 %2, ptr nocapture readnone %3) #1 {
  %5 = getelementptr inbounds i8, ptr %0, i64 8
  %6 = load ptr, ptr %5, align 8
  %.not = icmp eq ptr %6, null
  br i1 %.not, label %12, label %7

7:                                                ; preds = %4
  %8 = getelementptr inbounds i8, ptr %6, i64 72
  store i64 0, ptr %8, align 8
  %9 = getelementptr inbounds i8, ptr %6, i64 88
  %10 = load ptr, ptr %9, align 8
  %.not7 = icmp eq ptr %10, null
  br i1 %.not7, label %12, label %11

11:                                               ; preds = %7
  tail call void @_efree(ptr noundef nonnull %10) #10
  store ptr null, ptr %9, align 8
  br label %12

12:                                               ; preds = %7, %11, %4
  ret i32 0
}